target datalayout = "e-m:e-p270:32:32-p271:32:32-p272:64:64-i64:64-i128:128-f80:128-n8:16:32:64-S128"
target triple = "x86_64-pc-linux-gnu"

%struct.AVFilterContext = type { ptr, ptr, ptr, ptr, ptr, i32, ptr, ptr, i32, ptr, ptr, i32, i32, ptr, ptr, ptr, ptr, i32, ptr, i32, i32 }
%struct.MEContext = type { ptr, %struct.AVMotionEstContext, i32, i32, i32, i32, i32, i32, i32, ptr, ptr, ptr, [3 x ptr] }
%struct.AVMotionEstContext = type { ptr, ptr, i32, i32, i32, i32, i32, i32, i32, i32, i32, i32, i32, [2 x %struct.AVMotionEstPredictor], ptr }
%struct.AVMotionEstPredictor = type { [10 x [2 x i32]], i32 }
%struct.AVFilterLink = type { ptr, ptr, ptr, ptr, i32, i32, i32, i32, %struct.AVRational, i32, i32, i32, %struct.AVChannelLayout, %struct.AVRational, ptr, i32, %struct.AVFilterFormatsConfig, %struct.AVFilterFormatsConfig }
%struct.AVChannelLayout = type { i32, i32, %union.anon.1, ptr }
%union.anon.1 = type { i64 }
%struct.AVRational = type { i32, i32 }
%struct.AVFilterFormatsConfig = type { ptr, ptr, ptr, ptr, ptr }

@ff_log2_tab = external constant [256 x i8], align 16

; Function Attrs: alwaysinline nounwind willreturn memory(none) uwtable
define internal i32 @ff_log2_c(i32 noundef %0) #6 {
  %2 = alloca i32, align 4
  %3 = alloca i32, align 4
  store i32 %0, ptr %2, align 4, !tbaa !24
  call void @llvm.lifetime.start.p0(i64 4, ptr %3) #7
  store i32 0, ptr %3, align 4, !tbaa !24
  %4 = load i32, ptr %2, align 4, !tbaa !24
  %5 = and i32 %4, -65536
  %6 = icmp ne i32 %5, 0
  br i1 %6, label %7, label %12

7:                                                ; preds = %1
  %8 = load i32, ptr %2, align 4, !tbaa !24
  %9 = lshr i32 %8, 16
  store i32 %9, ptr %2, align 4, !tbaa !24
  %10 = load i32, ptr %3, align 4, !tbaa !24
  %11 = add nsw i32 %10, 16
  store i32 %11, ptr %3, align 4, !tbaa !24
  br label %12

12:                                               ; preds = %7, %1
  %13 = load i32, ptr %2, align 4, !tbaa !24
  %14 = and i32 %13, 65280
  %15 = icmp ne i32 %14, 0
  br i1 %15, label %16, label %21

16:                                               ; preds = %12
  %17 = load i32, ptr %2, align 4, !tbaa !24
  %18 = lshr i32 %17, 8
  store i32 %18, ptr %2, align 4, !tbaa !24
  %19 = load i32, ptr %3, align 4, !tbaa !24
  %20 = add nsw i32 %19, 8
  store i32 %20, ptr %3, align 4, !tbaa !24
  br label %21

21:                                               ; preds = %16, %12
  %22 = load i32, ptr %2, align 4, !tbaa !24
  %23 = zext i32 %22 to i64
  %24 = getelementptr inbounds nuw [256 x i8], ptr @ff_log2_tab, i64 0, i64 %23
  %25 = load i8, ptr %24, align 1, !tbaa !111
  %26 = zext i8 %25 to i32
  %27 = load i32, ptr %3, align 4, !tbaa !24
  %28 = add nsw i32 %27, %26
  store i32 %28, ptr %3, align 4, !tbaa !24
  %29 = load i32, ptr %3, align 4, !tbaa !24
  call void @llvm.lifetime.end.p0(i64 4, ptr %3) #7
  ret i32 %29
}

; Function Attrs: alwaysinline nounwind willreturn memory(none) uwtable
define internal i32 @av_ceil_log2_c(i32 noundef %0) #6 {
  %2 = alloca i32, align 4
  store i32 %0, ptr %2, align 4, !tbaa !24
  %3 = load i32, ptr %2, align 4, !tbaa !24
  %4 = sub i32 %3, 1
  %5 = shl i32 %4, 1
  %6 = call i32 @ff_log2_c(i32 noundef %5) #8
  ret i32 %6
}

; Function Attrs: nounwind uwtable
define internal i32 @config_input(ptr noundef %0) #1 {
  %2 = alloca i32, align 4
  %3 = alloca ptr, align 8
  %4 = alloca ptr, align 8
  %5 = alloca i32, align 4
  %6 = alloca i32, align 4
  store ptr %0, ptr %3, align 8, !tbaa !27
  call void @llvm.lifetime.start.p0(i64 8, ptr %4) #7
  %7 = load ptr, ptr %3, align 8, !tbaa !27
  %8 = getelementptr inbounds nuw %struct.AVFilterLink, ptr %7, i32 0, i32 2
  %9 = load ptr, ptr %8, align 8, !tbaa !31
  %10 = getelementptr inbounds nuw %struct.AVFilterContext, ptr %9, i32 0, i32 9
  %11 = load ptr, ptr %10, align 8, !tbaa !9
  store ptr %11, ptr %4, align 8, !tbaa !22
  call void @llvm.lifetime.start.p0(i64 4, ptr %5) #7
  %12 = load ptr, ptr %4, align 8, !tbaa !22
  %13 = getelementptr inbounds nuw %struct.MEContext, ptr %12, i32 0, i32 3
  %14 = load i32, ptr %13, align 4, !tbaa !91
  %15 = call i32 @av_ceil_log2_c(i32 noundef %14) #8
  %16 = load ptr, ptr %4, align 8, !tbaa !22
  %17 = getelementptr inbounds nuw %struct.MEContext, ptr %16, i32 0, i32 8
  store i32 %15, ptr %17, align 8, !tbaa !65
  %18 = load ptr, ptr %4, align 8, !tbaa !22
  %19 = getelementptr inbounds nuw %struct.MEContext, ptr %18, i32 0, i32 8
  %20 = load i32, ptr %19, align 8, !tbaa !65
  %21 = shl i32 1, %20
  %22 = load ptr, ptr %4, align 8, !tbaa !22
  %23 = getelementptr inbounds nuw %struct.MEContext, ptr %22, i32 0, i32 3
  store i32 %21, ptr %23, align 4, !tbaa !91
  %24 = load ptr, ptr %3, align 8, !tbaa !27
  %25 = getelementptr inbounds nuw %struct.AVFilterLink, ptr %24, i32 0, i32 6
  %26 = load i32, ptr %25, align 8, !tbaa !95
  %27 = load ptr, ptr %4, align 8, !tbaa !22
  %28 = getelementptr inbounds nuw %struct.MEContext, ptr %27, i32 0, i32 8
  %29 = load i32, ptr %28, align 8, !tbaa !65
  %30 = ashr i32 %26, %29
  %31 = load ptr, ptr %4, align 8, !tbaa !22
  %32 = getelementptr inbounds nuw %struct.MEContext, ptr %31, i32 0, i32 5
  store i32 %30, ptr %32, align 4, !tbaa !64
  %33 = load ptr, ptr %3, align 8, !tbaa !27
  %34 = getelementptr inbounds nuw %struct.AVFilterLink, ptr %33, i32 0, i32 7
  %35 = load i32, ptr %34, align 4, !tbaa !96
  %36 = load ptr, ptr %4, align 8, !tbaa !22
  %37 = getelementptr inbounds nuw %struct.MEContext, ptr %36, i32 0, i32 8
  %38 = load i32, ptr %37, align 8, !tbaa !65
  %39 = ashr i32 %35, %38
  %40 = load ptr, ptr %4, align 8, !tbaa !22
  %41 = getelementptr inbounds nuw %struct.MEContext, ptr %40, i32 0, i32 6
  store i32 %39, ptr %41, align 8, !tbaa !63
  %42 = load ptr, ptr %4, align 8, !tbaa !22
  %43 = getelementptr inbounds nuw %struct.MEContext, ptr %42, i32 0, i32 5
  %44 = load i32, ptr %43, align 4, !tbaa !64
  %45 = load ptr, ptr %4, align 8, !tbaa !22
  %46 = getelementptr inbounds nuw %struct.MEContext, ptr %45, i32 0, i32 6
  %47 = load i32, ptr %46, align 8, !tbaa !63
  %48 = mul nsw i32 %44, %47
  %49 = load ptr, ptr %4, align 8, !tbaa !22
  %50 = getelementptr inbounds nuw %struct.MEContext, ptr %49, i32 0, i32 7
  store i32 %48, ptr %50, align 4, !tbaa !55
  %51 = load ptr, ptr %4, align 8, !tbaa !22
  %52 = getelementptr inbounds nuw %struct.MEContext, ptr %51, i32 0, i32 7
  %53 = load i32, ptr %52, align 4, !tbaa !55
  %54 = icmp eq i32 %53, 0
  br i1 %54, label %55, label %56

55:                                               ; preds = %1
  store i32 -22, ptr %2, align 4
  store i32 1, ptr %6, align 4
  br label %114

56:                                               ; preds = %1
  store i32 0, ptr %5, align 4, !tbaa !24
  br label %57

57:                                               ; preds = %80, %56
  %58 = load i32, ptr %5, align 4, !tbaa !24
  %59 = icmp slt i32 %58, 3
  br i1 %59, label %60, label %83

60:                                               ; preds = %57
  %61 = load ptr, ptr %4, align 8, !tbaa !22
  %62 = getelementptr inbounds nuw %struct.MEContext, ptr %61, i32 0, i32 7
  %63 = load i32, ptr %62, align 4, !tbaa !55
  %64 = sext i32 %63 to i64
  %65 = call noalias ptr @av_calloc(i64 noundef %64, i64 noundef 16)
  %66 = load ptr, ptr %4, align 8, !tbaa !22
  %67 = getelementptr inbounds nuw %struct.MEContext, ptr %66, i32 0, i32 12
  %68 = load i32, ptr %5, align 4, !tbaa !24
  %69 = sext i32 %68 to i64
  %70 = getelementptr inbounds [3 x ptr], ptr %67, i64 0, i64 %69
  store ptr %65, ptr %70, align 8, !tbaa !53
  %71 = load ptr, ptr %4, align 8, !tbaa !22
  %72 = getelementptr inbounds nuw %struct.MEContext, ptr %71, i32 0, i32 12
  %73 = load i32, ptr %5, align 4, !tbaa !24
  %74 = sext i32 %73 to i64
  %75 = getelementptr inbounds [3 x ptr], ptr %72, i64 0, i64 %74
  %76 = load ptr, ptr %75, align 8, !tbaa !53
  %77 = icmp ne ptr %76, null
  br i1 %77, label %79, label %78

78:                                               ; preds = %60
  store i32 -12, ptr %2, align 4
  store i32 1, ptr %6, align 4
  br label %114

79:                                               ; preds = %60
  br label %80

80:                                               ; preds = %79
  %81 = load i32, ptr %5, align 4, !tbaa !24
  %82 = add nsw i32 %81, 1
  store i32 %82, ptr %5, align 4, !tbaa !24
  br label %57, !llvm.loop !97

83:                                               ; preds = %57
  %84 = load ptr, ptr %4, align 8, !tbaa !22
  %85 = getelementptr inbounds nuw %struct.MEContext, ptr %84, i32 0, i32 1
  %86 = load ptr, ptr %4, align 8, !tbaa !22
  %87 = getelementptr inbounds nuw %struct.MEContext, ptr %86, i32 0, i32 3
  %88 = load i32, ptr %87, align 4, !tbaa !91
  %89 = load ptr, ptr %4, align 8, !tbaa !22
  %90 = getelementptr inbounds nuw %struct.MEContext, ptr %89, i32 0, i32 4
  %91 = load i32, ptr %90, align 8, !tbaa !98
  %92 = load ptr, ptr %3, align 8, !tbaa !27
  %93 = getelementptr inbounds nuw %struct.AVFilterLink, ptr %92, i32 0, i32 6
  %94 = load i32, ptr %93, align 8, !tbaa !95
  %95 = load ptr, ptr %3, align 8, !tbaa !27
  %96 = getelementptr inbounds nuw %struct.AVFilterLink, ptr %95, i32 0, i32 7
  %97 = load i32, ptr %96, align 4, !tbaa !96
  %98 = load ptr, ptr %4, align 8, !tbaa !22
  %99 = getelementptr inbounds nuw %struct.MEContext, ptr %98, i32 0, i32 5
  %100 = load i32, ptr %99, align 4, !tbaa !64
  %101 = sub nsw i32 %100, 1
  %102 = load ptr, ptr %4, align 8, !tbaa !22
  %103 = getelementptr inbounds nuw %struct.MEContext, ptr %102, i32 0, i32 8
  %104 = load i32, ptr %103, align 8, !tbaa !65
  %105 = shl i32 %101, %104
  %106 = load ptr, ptr %4, align 8, !tbaa !22
  %107 = getelementptr inbounds nuw %struct.MEContext, ptr %106, i32 0, i32 6
  %108 = load i32, ptr %107, align 8, !tbaa !63
  %109 = sub nsw i32 %108, 1
  %110 = load ptr, ptr %4, align 8, !tbaa !22
  %111 = getelementptr inbounds nuw %struct.MEContext, ptr %110, i32 0, i32 8
  %112 = load i32, ptr %111, align 8, !tbaa !65
  %113 = shl i32 %109, %112
  call void @ff_me_init_context(ptr noundef %85, i32 noundef %88, i32 noundef %91, i32 noundef %94, i32 noundef %97, i32 noundef 0, i32 noundef %105, i32 noundef 0, i32 noundef %113)
  store i32 0, ptr %2, align 4
  store i32 1, ptr %6, align 4
  br label %114

114:                                              ; preds = %83, %78, %55
  call void @llvm.lifetime.end.p0(i64 4, ptr %5) #7
  call void @llvm.lifetime.end.p0(i64 8, ptr %4) #7
  %115 = load i32, ptr %2, align 4
  ret i32 %115
}